(dp0
VServer
p1
Vcmsweb.cern.ch
p2
sVPort
p3
V
p4
sVRequestName
p5
V230218_131955:acagnott_crab_QCDHT_500to700_2018
p6
sVvoRole
p7
VNULL
p8
sVvoGroup
p9
g4
sVinstance
p10
Vprod
p11
sVOriginalConfig
p12
ccopy_reg
_reconstructor
p13
(cWMCore.Configuration
Configuration
p14
c__builtin__
object
p15
Ntp16
Rp17
(dp18
V_internal_sections
p19
(lp20
VGeneral
p21
aVJobType
p22
aVData
p23
aVSite
p24
asg21
g13
(cWMCore.Configuration
ConfigSection
p25
g15
Ntp26
Rp27
(dp28
V_internal_documentation
p29
g4
sV_internal_name
p30
g21
sV_internal_settings
p31
c__builtin__
set
p32
((lp33
VrequestName
p34
aVtransferLogs
p35
atp36
Rp37
sV_internal_docstrings
p38
(dp39
sV_internal_children
p40
g32
((lp41
tp42
Rp43
sV_internal_parent_ref
p44
NsV_internal_skipChecks
p45
I00
sg34
VQCDHT_500to700_2018
p46
sg35
I01
sbsg22
g13
(g25
g15
Ntp47
Rp48
(dp49
g29
g4
sg30
g22
sg31
g32
((lp50
VpluginName
p51
aVpsetName
p52
aVscriptExe
p53
aVsendPythonFolder
p54
aVinputFiles
p55
atp56
Rp57
sg38
(dp58
sg40
g32
((lp59
tp60
Rp61
sg44
Nsg45
I00
sg51
VAnalysis
p62
sg52
VPSet.py
p63
sg53
Vcrab_script.sh
p64
sg55
(lp65
Vcrab_script.py
p66
aV../scripts/haddnano.py
p67
aV../scripts/keep_and_drop.txt
p68
asg54
I01
sbsg23
g13
(g25
g15
Ntp69
Rp70
(dp71
g29
g4
sg30
g23
sg31
g32
((lp72
Vsplitting
p73
aVoutLFNDirBase
p74
aVunitsPerJob
p75
aVpublication
p76
aVinputDBS
p77
aVallowNonValidInputDataset
p78
aVinputDataset
p79
aVoutputDatasetTag
p80
atp81
Rp82
sg38
(dp83
sg40
g32
((lp84
tp85
Rp86
sg44
Nsg45
I00
sg79
V/QCD_HT500to700_TuneCP5_13TeV-madgraphMLM-pythia8/RunIIAutumn18NanoAODv7-Nano02Apr2020_102X_upgrade2018_realistic_v21-v1/NANOAODSIM
p87
sg78
I01
sg77
Vglobal
p88
sg73
VFileBased
p89
sg75
I1
sg74
V/store/user/acagnott/DM_v0
p90
sg76
I00
sg80
g46
sbsg24
g13
(g25
g15
Ntp91
Rp92
(dp93
g29
g4
sg30
g24
sg31
g32
((lp94
VstorageSite
p95
atp96
Rp97
sg38
(dp98
sg40
g32
((lp99
tp100
Rp101
sg44
Nsg45
I00
sg95
VT2_IT_Pisa
p102
sbsbs.