ccopy_reg
_reconstructor
p0
(cFWCore.ParameterSet.Config
Process
p1
c__builtin__
object
p2
Ntp3
Rp4
(dp5
V_Process__name
p6
VNANO
p7
sV_Process__filters
p8
(dp9
sV_Process__producers
p10
(dp11
sV_Process__switchproducers
p12
(dp13
sV_Process__source
p14
g0
(cFWCore.ParameterSet.Modules
Source
p15
g2
Ntp16
Rp17
(dp18
V_TypedParameterizable__type
p19
VPoolSource
p20
sV_Parameterizable__parameterNames
p21
(lp22
VfileNames
p23
asV_isFrozen
p24
I00
sV_Parameterizable__validator
p25
Nsg23
g0
(cFWCore.ParameterSet.Types
vstring
p26
c__builtin__
list
p27
(lp28
V../../NanoAOD/test/lzma.root
p29
atp30
Rp31
(dp32
g24
I00
sV_ParameterTypeBase__isTracked
p33
I00
sV_isModified
p34
I01
sV_nPerLine
p35
I1
sbsg34
I01
sV_filename
p36
V/cvmfs/cms.cern.ch/slc7_amd64_gcc10/cms/cmssw/CMSSW_12_6_0/src/FWCore/ParameterSet/python/Modules.py
p37
sV_lineNumber
p38
I195
sbsV_Process__looper
p39
NsV_Process__subProcesses
p40
(lp41
sV_Process__schedule
p42
NsV_Process__analyzers
p43
(dp44
sV_Process__outputmodules
p45
(dp46
Voutput
p47
g0
(cFWCore.ParameterSet.Modules
OutputModule
p48
g2
Ntp49
Rp50
(dp51
g19
VPoolOutputModule
p52
sg21
(lp53
VfileName
p54
asg24
I00
sg25
Nsg54
g0
(cFWCore.ParameterSet.Types
string
p55
g2
Ntp56
Rp57
(dp58
g24
I00
sg33
I00
sg34
I00
sV_value
p59
Vtree_hadd.root
p60
sbsg34
I00
sg36
V/afs/cern.ch/user/l/lfavilla/CMSSW_12_6_0/src/PhysicsTools/NanoAODTools/crab/PSet.py
p61
sg38
I15
sV_Labelable__label
p62
g47
sbssV_Process__paths
p63
g0
(cFWCore.ParameterSet.DictTypes
SortedKeysDict
p64
c__builtin__
dict
p65
(dp66
tp67
Rp68
(dp69
Vlist
p70
(lp71
sbsV_Process__endpaths
p72
g0
(g64
g65
(dp73
Vout
p74
g0
(cFWCore.ParameterSet.SequenceTypes
EndPath
p75
g2
Ntp76
Rp77
(dp78
g24
I00
sV_seq
p79
g0
(cFWCore.ParameterSet.SequenceTypes
_SequenceCollection
p80
g2
Ntp81
Rp82
(dp83
V_collection
p84
(lp85
g50
asbsg34
I00
sV_tasks
p86
g0
(cFWCore.ParameterSet.OrderedSet
OrderedSet
p87
g2
Ntp88
Rp89
(dp90
Vend
p91
(lp92
Nag92
ag92
asVmap
p93
(dp94
sbsg62
g74
sbstp95
Rp96
(dp97
g70
(lp98
g74
asbsV_Process__finalpaths
p99
g0
(g64
g65
(dp100
tp101
Rp102
(dp103
g70
(lp104
sbsV_Process__sequences
p105
(dp106
sV_Process__tasks
p107
(dp108
sV_Process__conditionaltasks
p109
(dp110
sV_Process__services
p111
(dp112
VMessageLogger
p113
g0
(cFWCore.ParameterSet.Modules
Service
p114
g2
Ntp115
Rp116
(dp117
g19
g113
sg21
(lp118
VsuppressWarning
p119
aVsuppressFwkInfo
p120
aVsuppressInfo
p121
aVsuppressDebug
p122
aVdebugModules
p123
aVcout
p124
aVdefault
p125
aVcerr
p126
aVfiles
p127
asg24
I00
sg25
g0
(cFWCore.ParameterSet.Types
_OptionalParameter
p128
g2
Ntp129
Rp130
(dp131
g24
I00
sg33
I00
sg34
I00
sV_ProxyParameter__type
p132
g0
(cFWCore.ParameterSet.Types
_PSetTemplate
p133
g2
Ntp134
Rp135
(dp136
V_pset
p137
g0
(cFWCore.ParameterSet.Types
PSet
p138
g2
Ntp139
Rp140
(dp141
g24
I00
sg33
I01
sg34
I00
sg21
(lp142
VreportEvery
p143
aVlimit
p144
aVtimespan
p145
asg25
Nsg143
g0
(cFWCore.ParameterSet.Types
int32
p146
g2
Ntp147
Rp148
(dp149
g24
I00
sg33
I00
sg34
I00
sg59
I1
sbsg144
g0
(g128
g2
Ntp150
Rp151
(dp152
g24
I00
sg33
I00
sg34
I00
sg132
g146
sV_ProxyParameter__value
p153
Nsbsg145
g0
(g128
g2
Ntp154
Rp155
(dp156
g24
I00
sg33
I00
sg34
I00
sg132
g146
sg153
NsbsbsV_PSetTemplate__value
p157
Nsbsg153
Nsbsg119
g0
(g26
g27
(lp158
tp159
Rp160
(dp161
g24
I00
sg33
I00
sg34
I00
sg35
I1
sbsg34
I00
sg120
g0
(g26
g27
(lp162
tp163
Rp164
(dp165
g24
I00
sg33
I00
sg34
I00
sg35
I1
sbsg121
g0
(g26
g27
(lp166
tp167
Rp168
(dp169
g24
I00
sg33
I00
sg34
I00
sg35
I1
sbsg122
g0
(g26
g27
(lp170
tp171
Rp172
(dp173
g24
I00
sg33
I00
sg34
I00
sg35
I1
sbsg123
g0
(g26
g27
(lp174
tp175
Rp176
(dp177
g24
I00
sg33
I00
sg34
I00
sg35
I1
sbsg124
g0
(g138
g2
Ntp178
Rp179
(dp180
g24
I00
sg33
I00
sg34
I00
sg21
(lp181
VnoLineBreaks
p182
aVnoTimeStamps
p183
aVlineLength
p184
aVthreshold
p185
aVstatisticsThreshold
p186
aVenableStatistics
p187
aVresetStatistics
p188
aVenable
p189
asg25
g130
sg182
g0
(g128
g2
Ntp190
Rp191
(dp192
g24
I00
sg33
I00
sg34
I00
sg132
cFWCore.ParameterSet.Types
bool
p193
sg153
Nsbsg183
g0
(g128
g2
Ntp194
Rp195
(dp196
g24
I00
sg33
I00
sg34
I00
sg132
g193
sg153
Nsbsg184
g0
(g128
g2
Ntp197
Rp198
(dp199
g24
I00
sg33
I00
sg34
I00
sg132
g146
sg153
Nsbsg185
g0
(g128
g2
Ntp200
Rp201
(dp202
g24
I00
sg33
I00
sg34
I00
sg132
g55
sg153
Nsbsg186
g0
(g128
g2
Ntp203
Rp204
(dp205
g24
I00
sg33
I00
sg34
I00
sg132
g55
sg153
Nsbsg187
g0
(g193
g2
Ntp206
Rp207
(dp208
g24
I00
sg33
I00
sg34
I00
sg59
I00
sbsg188
g0
(g193
g2
Ntp209
Rp210
(dp211
g24
I00
sg33
I00
sg34
I00
sg59
I00
sbsg189
g0
(g193
g2
Ntp212
Rp213
(dp214
g24
I00
sg33
I00
sg34
I00
sg59
I00
sbsbsg125
g0
(g138
g2
Ntp215
Rp216
(dp217
g24
I00
sg33
I00
sg34
I00
sg21
(lp218
g143
ag144
ag145
ag182
ag183
ag184
ag185
ag186
asg25
g130
sg143
g0
(g146
g2
Ntp219
Rp220
(dp221
g24
I00
sg33
I00
sg34
I00
sg59
I1
sbsg144
g0
(g128
g2
Ntp222
Rp223
(dp224
g24
I00
sg33
I00
sg34
I00
sg132
g146
sg153
Nsbsg145
g0
(g128
g2
Ntp225
Rp226
(dp227
g24
I00
sg33
I00
sg34
I00
sg132
g146
sg153
Nsbsg182
g0
(g193
g2
Ntp228
Rp229
(dp230
g24
I00
sg33
I00
sg34
I00
sg59
I00
sbsg183
g0
(g193
g2
Ntp231
Rp232
(dp233
g24
I00
sg33
I00
sg34
I00
sg59
I00
sbsg184
g0
(g146
g2
Ntp234
Rp235
(dp236
g24
I00
sg33
I00
sg34
I00
sg59
I80
sbsg185
g0
(g55
g2
Ntp237
Rp238
(dp239
g24
I00
sg33
I00
sg34
I00
sg59
VINFO
p240
sbsg186
g0
(g55
g2
Ntp241
Rp242
(dp243
g24
I00
sg33
I00
sg34
I00
sg59
g240
sbsbsg126
g0
(g138
g2
Ntp244
Rp245
(dp246
g24
I00
sg33
I00
sg34
I00
sg21
(lp247
g182
ag183
ag184
ag185
ag186
ag189
ag187
ag188
ag240
aVFwkReport
p248
ag125
aVRoot_NoDictionary
p249
aVFwkSummary
p250
asg25
g130
sg182
g0
(g128
g2
Ntp251
Rp252
(dp253
g24
I00
sg33
I00
sg34
I00
sg132
g193
sg153
Nsbsg183
g0
(g193
g2
Ntp254
Rp255
(dp256
g24
I00
sg33
I00
sg34
I00
sg59
I00
sbsg184
g0
(g128
g2
Ntp257
Rp258
(dp259
g24
I00
sg33
I00
sg34
I00
sg132
g146
sg153
Nsbsg185
g0
(g55
g2
Ntp260
Rp261
(dp262
g24
I00
sg33
I00
sg34
I00
sg59
g240
sbsg186
g0
(g55
g2
Ntp263
Rp264
(dp265
g24
I00
sg33
I00
sg34
I00
sg59
VWARNING
p266
sbsg189
g0
(g193
g2
Ntp267
Rp268
(dp269
g24
I00
sg33
I00
sg34
I00
sg59
I01
sbsg187
g0
(g193
g2
Ntp270
Rp271
(dp272
g24
I00
sg33
I00
sg34
I00
sg59
I00
sbsg188
g0
(g193
g2
Ntp273
Rp274
(dp275
g24
I00
sg33
I00
sg34
I00
sg59
I00
sbsg240
g0
(g138
g2
Ntp276
Rp277
(dp278
g24
I00
sg33
I00
sg34
I00
sg21
(lp279
g144
asg25
Nsg144
g0
(g146
g2
Ntp280
Rp281
(dp282
g24
I00
sg33
I00
sg34
I00
sg59
I0
sbsbsg248
g0
(g138
g2
Ntp283
Rp284
(dp285
g24
I00
sg33
I00
sg34
I00
sg21
(lp286
g143
ag144
asg25
Nsg143
g0
(g146
g2
Ntp287
Rp288
(dp289
g24
I00
sg33
I00
sg34
I00
sg59
I1
sbsg144
g0
(g146
g2
Ntp290
Rp291
(dp292
g24
I00
sg33
I00
sg34
I00
sg59
I10000000
sbsbsg125
g0
(g138
g2
Ntp293
Rp294
(dp295
g24
I00
sg33
I00
sg34
I00
sg21
(lp296
g144
asg25
Nsg144
g0
(g146
g2
Ntp297
Rp298
(dp299
g24
I00
sg33
I00
sg34
I00
sg59
I10000000
sbsbsg249
g0
(g138
g2
Ntp300
Rp301
(dp302
g24
I00
sg33
I00
sg34
I00
sg21
(lp303
g144
asg25
Nsg144
g0
(g146
g2
Ntp304
Rp305
(dp306
g24
I00
sg33
I00
sg34
I00
sg59
I0
sbsbsg250
g0
(g138
g2
Ntp307
Rp308
(dp309
g24
I00
sg33
I00
sg34
I00
sg21
(lp310
g143
ag144
asg25
Nsg143
g0
(g146
g2
Ntp311
Rp312
(dp313
g24
I00
sg33
I00
sg34
I00
sg59
I1
sbsg144
g0
(g146
g2
Ntp314
Rp315
(dp316
g24
I00
sg33
I00
sg34
I00
sg59
I10000000
sbsbsbsg127
g0
(g138
g2
Ntp317
Rp318
(dp319
g24
I00
sg33
I00
sg34
I00
sg21
(lp320
sg25
g0
(g128
g2
Ntp321
Rp322
(dp323
g24
I00
sg33
I00
sg34
I00
sg132
g0
(g133
g2
Ntp324
Rp325
(dp326
g137
g0
(g138
g2
Ntp327
Rp328
(dp329
g24
I00
sg33
I01
sg34
I00
sg21
(lp330
g182
ag183
ag184
ag185
ag186
ag187
ag188
aVfilename
p331
aVextension
p332
ag47
asg25
g130
sg182
g0
(g128
g2
Ntp333
Rp334
(dp335
g24
I00
sg33
I00
sg34
I00
sg132
g193
sg153
Nsbsg183
g0
(g128
g2
Ntp336
Rp337
(dp338
g24
I00
sg33
I00
sg34
I00
sg132
g193
sg153
Nsbsg184
g0
(g128
g2
Ntp339
Rp340
(dp341
g24
I00
sg33
I00
sg34
I00
sg132
g146
sg153
Nsbsg185
g0
(g128
g2
Ntp342
Rp343
(dp344
g24
I00
sg33
I00
sg34
I00
sg132
g55
sg153
Nsbsg186
g0
(g128
g2
Ntp345
Rp346
(dp347
g24
I00
sg33
I00
sg34
I00
sg132
g55
sg153
Nsbsg187
g0
(g193
g2
Ntp348
Rp349
(dp350
g24
I00
sg33
I00
sg34
I00
sg59
I00
sbsg188
g0
(g193
g2
Ntp351
Rp352
(dp353
g24
I00
sg33
I00
sg34
I00
sg59
I00
sbsg331
g0
(g128
g2
Ntp354
Rp355
(dp356
g24
I00
sg33
I00
sg34
I00
sg132
g55
sg153
Nsbsg332
g0
(g128
g2
Ntp357
Rp358
(dp359
g24
I00
sg33
I00
sg34
I00
sg132
g55
sg153
Nsbsg47
g0
(g128
g2
Ntp360
Rp361
(dp362
g24
I00
sg33
I00
sg34
I00
sg132
g55
sg153
Nsbsbsg157
Nsbsg153
Nsbsbsg36
g37
sg38
I13
sV_inProcess
p363
I01
sbssV_Process__essources
p364
(dp365
sV_Process__esproducers
p366
(dp367
sV_Process__esprefers
p368
(dp369
sV_Process__aliases
p370
(dp371
sV_Process__psets
p372
(dp373
Voptions
p374
g0
(g138
g2
Ntp375
Rp376
(dp377
g24
I00
sg33
I00
sg34
I01
sg21
(lp378
VnumberOfThreads
p379
aVnumberOfStreams
p380
aVnumberOfConcurrentRuns
p381
aVnumberOfConcurrentLuminosityBlocks
p382
aVeventSetup
p383
aVaccelerators
p384
aVwantSummary
p385
aVfileMode
p386
aVforceEventSetupCacheClearOnNewRun
p387
aVthrowIfIllegalParameter
p388
aVprintDependencies
p389
aVdeleteNonConsumedUnscheduledModules
p390
aVsizeOfStackForThreadsInKB
p391
aVRethrow
p392
aVSkipEvent
p393
aVFailPath
p394
aVIgnoreCompletely
p395
aVcanDeleteEarly
p396
aVholdsReferencesToDeleteEarly
p397
aVmodulesToIgnoreForDeleteEarly
p398
aVdumpOptions
p399
aVallowUnscheduled
p400
aVemptyRunLumiMode
p401
aVmakeTriggerResults
p402
asg25
Nsg379
g0
(cFWCore.ParameterSet.Types
uint32
p403
g2
Ntp404
Rp405
(dp406
g24
I00
sg33
I00
sg34
I00
sg59
I1
sbsg380
g0
(g403
g2
Ntp407
Rp408
(dp409
g24
I00
sg33
I00
sg34
I00
sg59
I0
sbsg381
g0
(g403
g2
Ntp410
Rp411
(dp412
g24
I00
sg33
I00
sg34
I00
sg59
I1
sbsg382
g0
(g403
g2
Ntp413
Rp414
(dp415
g24
I00
sg33
I00
sg34
I00
sg59
I0
sbsg383
g0
(g138
g2
Ntp416
Rp417
(dp418
g24
I00
sg33
I00
sg34
I00
sg21
(lp419
VnumberOfConcurrentIOVs
p420
aVforceNumberOfConcurrentIOVs
p421
asg25
Nsg420
g0
(g403
g2
Ntp422
Rp423
(dp424
g24
I00
sg33
I00
sg34
I00
sg59
I0
sbsg421
g0
(g138
g2
Ntp425
Rp426
(dp427
g24
I00
sg33
I00
sg34
I00
sg21
(lp428
sg25
g0
(cFWCore.ParameterSet.Types
_RequiredParameter
p429
g2
Ntp430
Rp431
(dp432
g24
I00
sg33
I00
sg34
I00
sg132
g403
sg153
Nsbsbsbsg384
g0
(g26
g27
(lp433
V*
p434
atp435
Rp436
(dp437
g24
I00
sg33
I00
sg34
I00
sg35
I1
sbsg385
g0
(g193
g2
Ntp438
Rp439
(dp440
g24
I00
sg33
I00
sg34
I00
sg59
I00
sbsg386
g0
(g55
g2
Ntp441
Rp442
(dp443
g24
I00
sg33
I00
sg34
I00
sg59
VFULLMERGE
p444
sbsg387
g0
(g193
g2
Ntp445
Rp446
(dp447
g24
I00
sg33
I00
sg34
I00
sg59
I00
sbsg388
g0
(g193
g2
Ntp448
Rp449
(dp450
g24
I00
sg33
I00
sg34
I00
sg59
I01
sbsg389
g0
(g193
g2
Ntp451
Rp452
(dp453
g24
I00
sg33
I00
sg34
I00
sg59
I00
sbsg390
g0
(g193
g2
Ntp454
Rp455
(dp456
g24
I00
sg33
I00
sg34
I00
sg59
I01
sbsg391
g0
(g128
g2
Ntp457
Rp458
(dp459
g24
I00
sg33
I00
sg34
I00
sg132
g403
sg153
Nsbsg392
g0
(g26
g27
(lp460
tp461
Rp462
(dp463
g24
I00
sg33
I00
sg34
I00
sg35
I1
sbsg393
g0
(g26
g27
(lp464
tp465
Rp466
(dp467
g24
I00
sg33
I00
sg34
I00
sg35
I1
sbsg394
g0
(g26
g27
(lp468
tp469
Rp470
(dp471
g24
I00
sg33
I00
sg34
I00
sg35
I1
sbsg395
g0
(g26
g27
(lp472
tp473
Rp474
(dp475
g24
I00
sg33
I00
sg34
I00
sg35
I1
sbsg396
g0
(g26
g27
(lp476
tp477
Rp478
(dp479
g24
I00
sg33
I00
sg34
I00
sg35
I1
sbsg397
g0
(cFWCore.ParameterSet.Types
VPSet
p480
g27
(lp481
tp482
Rp483
(dp484
g24
I00
sg33
I00
sg34
I00
sg35
I1
sbsg398
g0
(g26
g27
(lp485
tp486
Rp487
(dp488
g24
I00
sg33
I00
sg34
I00
sg35
I1
sbsg399
g0
(g193
g2
Ntp489
Rp490
(dp491
g24
I00
sg33
I00
sg34
I00
sg59
I00
sbsg400
g0
(cFWCore.ParameterSet.Types
_ObsoleteParameter
p492
g2
Ntp493
Rp494
(dp495
g24
I00
sg33
I00
sg34
I00
sg132
g193
sg153
Nsbsg401
g0
(g492
g2
Ntp496
Rp497
(dp498
g24
I00
sg33
I00
sg34
I00
sg132
g55
sg153
Nsbsg402
g0
(g492
g2
Ntp499
Rp500
(dp501
g24
I00
sg33
I00
sg34
I00
sg132
g193
sg153
Nsbsg62
g374
sbsVmaxLuminosityBlocks
p502
g0
(g138
g2
Ntp503
Rp504
(dp505
g24
I00
sg33
I00
sg34
I00
sg21
(lp506
Vinput
p507
asg25
Nsg507
g0
(g146
g2
Ntp508
Rp509
(dp510
g24
I00
sg33
I00
sg34
I00
sg59
I-1
sbsg62
g502
sbsVmaxEvents
p511
g0
(g138
g2
Ntp512
Rp513
(dp514
g24
I00
sg33
I00
sg34
I01
sg21
(lp515
g507
ag47
asg25
Nsg507
g0
(g146
g2
Ntp516
Rp517
(dp518
g24
I00
sg33
I00
sg34
I00
sg59
I10
sbsg47
g0
(g128
g2
Ntp519
Rp520
(dp521
g24
I00
sg33
I00
sg34
I00
sg132
g0
(cFWCore.ParameterSet.Types
_AllowedParameterTypes
p522
g2
Ntp523
Rp524
(dp525
V_AllowedParameterTypes__types
p526
(g146
g138
tp527
sV_AllowedParameterTypes__value
p528
NsV__name__
p529
Vallowed(cms.int32,cms.PSet)
p530
sbsg153
Nsbsg62
g511
sbssV_Process__vpsets
p531
(dp532
sV_cloneToObjectDict
p533
(dp534
L139772108577568L
g376
sL139772113715264L
g0
(g138
g2
Ntp535
Rp536
(dp537
g24
I00
sg33
I00
sg34
I01
sg21
(lp538
g507
ag47
asg25
Nsg507
g0
(g128
g2
Ntp539
Rp540
(dp541
g24
I00
sg33
I00
sg34
I00
sg132
g146
sg153
Nsbsg47
g0
(g128
g2
Ntp542
Rp543
(dp544
g24
I00
sg33
I00
sg34
I00
sg132
g0
(g522
g2
Ntp545
Rp546
(dp547
g526
(g146
g138
tp548
sg528
Nsg529
Vallowed(cms.int32,cms.PSet)
p549
sbsg153
Nsbsg62
NsbsL139772113717424L
g504
sL139772113717856L
g513
sL139772113574448L
g50
sL139772113573440L
g77
ssV_Process__InExtendCall
p550
I00
sV_Process__partialschedules
p551
(dp552
sV_Process__isStrict
p553
I00
sV_Process__modifiers
p554
(tsV_Process__accelerators
p555
(dp556
sg374
g376
sg502
g504
sg113
g116
sVsource
p557
g17
sg20
g17
sg511
g513
sg47
g50
sg74
g77
sb.